; Function Attrs: mustprogress uwtable
define dso_local noundef i32 @_ZN14CrowdToolState13hitTestAgentsEPKfS1_(ptr nocapture noundef nonnull readonly align 8 dereferenceable(101001) %0, ptr nocapture noundef readonly %1, ptr nocapture noundef readonly %2) local_unnamed_addr #0 align 2 {
  %4 = alloca [3 x float], align 8
  %5 = alloca [3 x float], align 4
  %6 = alloca [3 x float], align 8
  %7 = getelementptr inbounds i8, ptr %0, i64 8
  %8 = load ptr, ptr %7, align 8
  %.not = icmp eq ptr %8, null
  br i1 %.not, label %.loopexit, label %9

9:                                                ; preds = %3
  %10 = load ptr, ptr %8, align 8
  %11 = getelementptr inbounds i8, ptr %10, i64 136
  %12 = load ptr, ptr %11, align 8
  %13 = tail call noundef ptr %12(ptr noundef nonnull align 8 dereferenceable(200) %8)
  %14 = tail call noundef i32 @_ZNK7dtCrowd13getAgentCountEv(ptr noundef nonnull align 8 dereferenceable(5072) %13)
  %15 = icmp sgt i32 %14, 0
  br i1 %15, label %.lr.ph, label %.loopexit

.lr.ph:                                           ; preds = %9
  %16 = getelementptr inbounds i8, ptr %5, i64 4
  %17 = getelementptr inbounds i8, ptr %5, i64 8
  %18 = getelementptr inbounds i8, ptr %6, i64 8
  %19 = getelementptr inbounds i8, ptr %2, i64 8
  %20 = getelementptr inbounds i8, ptr %1, i64 8
  %21 = getelementptr inbounds i8, ptr %4, i64 8
  br label %22

22:                                               ; preds = %.lr.ph, %90
  %.01430 = phi i32 [ 0, %.lr.ph ], [ %91, %90 ]
  %.01529 = phi float [ 0x47EFFFFFE0000000, %.lr.ph ], [ %.1, %90 ]
  %.01628 = phi i32 [ -1, %.lr.ph ], [ %.117, %90 ]
  %23 = tail call noundef ptr @_ZN7dtCrowd8getAgentEi(ptr noundef nonnull align 8 dereferenceable(5072) %13, i32 noundef %.01430)
  %24 = load i8, ptr %23, align 8
  %25 = and i8 %24, 1
  %.not20 = icmp eq i8 %25, 0
  br i1 %.not20, label %90, label %26

26:                                               ; preds = %22
  %27 = getelementptr inbounds i8, ptr %23, i64 416
  %28 = getelementptr inbounds i8, ptr %23, i64 480
  %29 = getelementptr inbounds i8, ptr %23, i64 424
  %30 = load float, ptr %29, align 4
  %31 = load <2 x float>, ptr %28, align 8
  %32 = load <2 x float>, ptr %27, align 4
  %33 = extractelement <2 x float> %31, i64 0
  %34 = fsub <2 x float> %32, %31
  %35 = extractelement <2 x float> %34, i64 0
  store float %35, ptr %5, align 4
  %36 = extractelement <2 x float> %32, i64 1
  store float %36, ptr %16, align 4
  %37 = fsub float %30, %33
  store float %37, ptr %17, align 4
  %38 = fadd <2 x float> %31, %32
  store <2 x float> %38, ptr %6, align 8
  %39 = fadd float %33, %30
  store float %39, ptr %18, align 8
  call void @llvm.lifetime.start.p0(i64 12, ptr nonnull %4)
  %40 = load <2 x float>, ptr %2, align 4
  %41 = load <2 x float>, ptr %1, align 4
  %42 = fsub <2 x float> %40, %41
  store <2 x float> %42, ptr %4, align 8
  %43 = load float, ptr %19, align 4
  %44 = load float, ptr %20, align 4
  %45 = fsub float %43, %44
  store float %45, ptr %21, align 8
  br label %46

46:                                               ; preds = %83, %26
  %.025 = phi float [ 0.000000e+00, %26 ], [ %.227, %83 ]
  %.023 = phi float [ 0x47EFFFFFE0000000, %26 ], [ %.2, %83 ]
  %47 = phi float [ 0x47EFFFFFE0000000, %26 ], [ %84, %83 ]
  %48 = phi float [ 0x47EFFFFFE0000000, %26 ], [ %85, %83 ]
  %indvars.iv.i = phi i64 [ 0, %26 ], [ %indvars.iv.next.i, %83 ]
  %49 = phi i1 [ false, %26 ], [ %86, %83 ]
  %50 = getelementptr inbounds [3 x float], ptr %4, i64 0, i64 %indvars.iv.i
  %51 = load float, ptr %50, align 4
  %52 = tail call float @llvm.fabs.f32(float %51)
  %53 = fcmp olt float %52, 0x3EB0C6F7A0000000
  br i1 %53, label %54, label %64

54:                                               ; preds = %46
  %55 = getelementptr inbounds float, ptr %1, i64 %indvars.iv.i
  %56 = load float, ptr %55, align 4
  %57 = getelementptr inbounds float, ptr %5, i64 %indvars.iv.i
  %58 = load float, ptr %57, align 4
  %59 = fcmp olt float %56, %58
  br i1 %59, label %_ZL12isectSegAABBPKfS0_S0_S0_RfS1_.exit, label %60

60:                                               ; preds = %54
  %61 = getelementptr inbounds float, ptr %6, i64 %indvars.iv.i
  %62 = load float, ptr %61, align 4
  %63 = fcmp ogt float %56, %62
  br i1 %63, label %_ZL12isectSegAABBPKfS0_S0_S0_RfS1_.exit, label %83

64:                                               ; preds = %46
  %65 = fdiv float 1.000000e+00, %51
  %66 = getelementptr inbounds float, ptr %5, i64 %indvars.iv.i
  %67 = load float, ptr %66, align 4
  %68 = getelementptr inbounds float, ptr %1, i64 %indvars.iv.i
  %69 = load float, ptr %68, align 4
  %70 = fsub float %67, %69
  %71 = fmul float %65, %70
  %72 = getelementptr inbounds float, ptr %6, i64 %indvars.iv.i
  %73 = load float, ptr %72, align 4
  %74 = fsub float %73, %69
  %75 = fmul float %65, %74
  %76 = fcmp ogt float %71, %75
  %.039.i = select i1 %76, float %75, float %71
  %.0.i = select i1 %76, float %71, float %75
  %77 = fcmp ogt float %.039.i, %.025
  %.126 = select i1 %77, float %.039.i, float %.025
  %78 = select i1 %77, float %.023, float %47
  %79 = select i1 %77, float %.023, float %48
  %80 = fcmp olt float %.0.i, %79
  %.124 = select i1 %80, float %.0.i, float %.023
  %81 = select i1 %80, float %.0.i, float %78
  %82 = fcmp ogt float %.126, %81
  br i1 %82, label %_ZL12isectSegAABBPKfS0_S0_S0_RfS1_.exit, label %83

83:                                               ; preds = %64, %60
  %.227 = phi float [ %.025, %60 ], [ %.126, %64 ]
  %.2 = phi float [ %.023, %60 ], [ %.124, %64 ]
  %84 = phi float [ %47, %60 ], [ %81, %64 ]
  %85 = phi float [ %48, %60 ], [ %81, %64 ]
  %indvars.iv.next.i = add nuw nsw i64 %indvars.iv.i, 1
  %86 = icmp ugt i64 %indvars.iv.i, 1
  %exitcond.i = icmp eq i64 %indvars.iv.next.i, 3
  br i1 %exitcond.i, label %_ZL12isectSegAABBPKfS0_S0_S0_RfS1_.exit, label %46, !llvm.loop !32

_ZL12isectSegAABBPKfS0_S0_S0_RfS1_.exit:          ; preds = %54, %60, %64, %83
  %.3 = phi float [ %.025, %54 ], [ %.025, %60 ], [ %.227, %83 ], [ %.126, %64 ]
  %.lcssa.i = phi i1 [ %49, %54 ], [ %49, %60 ], [ %86, %83 ], [ %49, %64 ]
  call void @llvm.lifetime.end.p0(i64 12, ptr nonnull %4)
  %87 = fcmp ogt float %.3, 0.000000e+00
  %or.cond = select i1 %.lcssa.i, i1 %87, i1 false
  %88 = fcmp olt float %.3, %.01529
  %or.cond21 = select i1 %or.cond, i1 %88, i1 false
  br i1 %or.cond21, label %89, label %90

89:                                               ; preds = %_ZL12isectSegAABBPKfS0_S0_S0_RfS1_.exit
  br label %90

90:                                               ; preds = %_ZL12isectSegAABBPKfS0_S0_S0_RfS1_.exit, %89, %22
  %.117 = phi i32 [ %.01430, %89 ], [ %.01628, %_ZL12isectSegAABBPKfS0_S0_S0_RfS1_.exit ], [ %.01628, %22 ]
  %.1 = phi float [ %.3, %89 ], [ %.01529, %_ZL12isectSegAABBPKfS0_S0_S0_RfS1_.exit ], [ %.01529, %22 ]
  %91 = add nuw nsw i32 %.01430, 1
  %92 = tail call noundef i32 @_ZNK7dtCrowd13getAgentCountEv(ptr noundef nonnull align 8 dereferenceable(5072) %13)
  %93 = icmp slt i32 %91, %92
  br i1 %93, label %22, label %.loopexit, !llvm.loop !33

.loopexit:                                        ; preds = %90, %9, %3
  %.0 = phi i32 [ -1, %3 ], [ -1, %9 ], [ %.117, %90 ]
  ret i32 %.0
}